target datalayout = "e-m:e-p270:32:32-p271:32:32-p272:64:64-i64:64-i128:128-f80:128-n8:16:32:64-S128"
target triple = "x86_64-unknown-linux-gnu"

; Function Attrs: mustprogress nounwind uwtable
define hidden void @_Z25bcdec__smooth_alpha_blockPKvPvii(ptr noundef %compressedBlock, ptr noundef %decompressedBlock, i32 noundef %destinationPitch, i32 noundef %pixelSize) #4 {
entry:
  %compressedBlock.addr = alloca ptr, align 8
  %decompressedBlock.addr = alloca ptr, align 8
  %destinationPitch.addr = alloca i32, align 4
  %pixelSize.addr = alloca i32, align 4
  %decompressed = alloca ptr, align 8
  %alpha = alloca [8 x i8], align 1
  %i = alloca i32, align 4
  %j = alloca i32, align 4
  %block = alloca i64, align 8
  %indices = alloca i64, align 8
  store ptr %compressedBlock, ptr %compressedBlock.addr, align 8
  store ptr %decompressedBlock, ptr %decompressedBlock.addr, align 8
  store i32 %destinationPitch, ptr %destinationPitch.addr, align 4
  store i32 %pixelSize, ptr %pixelSize.addr, align 4
  %0 = load ptr, ptr %compressedBlock.addr, align 8
  %1 = load i64, ptr %0, align 8
  store i64 %1, ptr %block, align 8
  %2 = load ptr, ptr %decompressedBlock.addr, align 8
  store ptr %2, ptr %decompressed, align 8
  %3 = load i64, ptr %block, align 8
  %and = and i64 %3, 255
  %conv = trunc i64 %and to i8
  %arrayidx = getelementptr inbounds [8 x i8], ptr %alpha, i64 0, i64 0
  store i8 %conv, ptr %arrayidx, align 1
  %4 = load i64, ptr %block, align 8
  %shr = lshr i64 %4, 8
  %and1 = and i64 %shr, 255
  %conv2 = trunc i64 %and1 to i8
  %arrayidx3 = getelementptr inbounds [8 x i8], ptr %alpha, i64 0, i64 1
  store i8 %conv2, ptr %arrayidx3, align 1
  %arrayidx4 = getelementptr inbounds [8 x i8], ptr %alpha, i64 0, i64 0
  %5 = load i8, ptr %arrayidx4, align 1
  %conv5 = zext i8 %5 to i32
  %arrayidx6 = getelementptr inbounds [8 x i8], ptr %alpha, i64 0, i64 1
  %6 = load i8, ptr %arrayidx6, align 1
  %conv7 = zext i8 %6 to i32
  %cmp = icmp sgt i32 %conv5, %conv7
  br i1 %cmp, label %if.then, label %if.else

if.then:                                          ; preds = %entry
  %arrayidx8 = getelementptr inbounds [8 x i8], ptr %alpha, i64 0, i64 0
  %7 = load i8, ptr %arrayidx8, align 1
  %conv9 = zext i8 %7 to i32
  %mul = mul nsw i32 6, %conv9
  %arrayidx10 = getelementptr inbounds [8 x i8], ptr %alpha, i64 0, i64 1
  %8 = load i8, ptr %arrayidx10, align 1
  %conv11 = zext i8 %8 to i32
  %add = add nsw i32 %mul, %conv11
  %add12 = add nsw i32 %add, 1
  %div = sdiv i32 %add12, 7
  %conv13 = trunc i32 %div to i8
  %arrayidx14 = getelementptr inbounds [8 x i8], ptr %alpha, i64 0, i64 2
  store i8 %conv13, ptr %arrayidx14, align 1
  %arrayidx15 = getelementptr inbounds [8 x i8], ptr %alpha, i64 0, i64 0
  %9 = load i8, ptr %arrayidx15, align 1
  %conv16 = zext i8 %9 to i32
  %mul17 = mul nsw i32 5, %conv16
  %arrayidx18 = getelementptr inbounds [8 x i8], ptr %alpha, i64 0, i64 1
  %10 = load i8, ptr %arrayidx18, align 1
  %conv19 = zext i8 %10 to i32
  %mul20 = mul nsw i32 2, %conv19
  %add21 = add nsw i32 %mul17, %mul20
  %add22 = add nsw i32 %add21, 1
  %div23 = sdiv i32 %add22, 7
  %conv24 = trunc i32 %div23 to i8
  %arrayidx25 = getelementptr inbounds [8 x i8], ptr %alpha, i64 0, i64 3
  store i8 %conv24, ptr %arrayidx25, align 1
  %arrayidx26 = getelementptr inbounds [8 x i8], ptr %alpha, i64 0, i64 0
  %11 = load i8, ptr %arrayidx26, align 1
  %conv27 = zext i8 %11 to i32
  %mul28 = mul nsw i32 4, %conv27
  %arrayidx29 = getelementptr inbounds [8 x i8], ptr %alpha, i64 0, i64 1
  %12 = load i8, ptr %arrayidx29, align 1
  %conv30 = zext i8 %12 to i32
  %mul31 = mul nsw i32 3, %conv30
  %add32 = add nsw i32 %mul28, %mul31
  %add33 = add nsw i32 %add32, 1
  %div34 = sdiv i32 %add33, 7
  %conv35 = trunc i32 %div34 to i8
  %arrayidx36 = getelementptr inbounds [8 x i8], ptr %alpha, i64 0, i64 4
  store i8 %conv35, ptr %arrayidx36, align 1
  %arrayidx37 = getelementptr inbounds [8 x i8], ptr %alpha, i64 0, i64 0
  %13 = load i8, ptr %arrayidx37, align 1
  %conv38 = zext i8 %13 to i32
  %mul39 = mul nsw i32 3, %conv38
  %arrayidx40 = getelementptr inbounds [8 x i8], ptr %alpha, i64 0, i64 1
  %14 = load i8, ptr %arrayidx40, align 1
  %conv41 = zext i8 %14 to i32
  %mul42 = mul nsw i32 4, %conv41
  %add43 = add nsw i32 %mul39, %mul42
  %add44 = add nsw i32 %add43, 1
  %div45 = sdiv i32 %add44, 7
  %conv46 = trunc i32 %div45 to i8
  %arrayidx47 = getelementptr inbounds [8 x i8], ptr %alpha, i64 0, i64 5
  store i8 %conv46, ptr %arrayidx47, align 1
  %arrayidx48 = getelementptr inbounds [8 x i8], ptr %alpha, i64 0, i64 0
  %15 = load i8, ptr %arrayidx48, align 1
  %conv49 = zext i8 %15 to i32
  %mul50 = mul nsw i32 2, %conv49
  %arrayidx51 = getelementptr inbounds [8 x i8], ptr %alpha, i64 0, i64 1
  %16 = load i8, ptr %arrayidx51, align 1
  %conv52 = zext i8 %16 to i32
  %mul53 = mul nsw i32 5, %conv52
  %add54 = add nsw i32 %mul50, %mul53
  %add55 = add nsw i32 %add54, 1
  %div56 = sdiv i32 %add55, 7
  %conv57 = trunc i32 %div56 to i8
  %arrayidx58 = getelementptr inbounds [8 x i8], ptr %alpha, i64 0, i64 6
  store i8 %conv57, ptr %arrayidx58, align 1
  %arrayidx59 = getelementptr inbounds [8 x i8], ptr %alpha, i64 0, i64 0
  %17 = load i8, ptr %arrayidx59, align 1
  %conv60 = zext i8 %17 to i32
  %arrayidx61 = getelementptr inbounds [8 x i8], ptr %alpha, i64 0, i64 1
  %18 = load i8, ptr %arrayidx61, align 1
  %conv62 = zext i8 %18 to i32
  %mul63 = mul nsw i32 6, %conv62
  %add64 = add nsw i32 %conv60, %mul63
  %add65 = add nsw i32 %add64, 1
  %div66 = sdiv i32 %add65, 7
  %conv67 = trunc i32 %div66 to i8
  %arrayidx68 = getelementptr inbounds [8 x i8], ptr %alpha, i64 0, i64 7
  store i8 %conv67, ptr %arrayidx68, align 1
  br label %if.end

if.else:                                          ; preds = %entry
  %arrayidx69 = getelementptr inbounds [8 x i8], ptr %alpha, i64 0, i64 0
  %19 = load i8, ptr %arrayidx69, align 1
  %conv70 = zext i8 %19 to i32
  %mul71 = mul nsw i32 4, %conv70
  %arrayidx72 = getelementptr inbounds [8 x i8], ptr %alpha, i64 0, i64 1
  %20 = load i8, ptr %arrayidx72, align 1
  %conv73 = zext i8 %20 to i32
  %add74 = add nsw i32 %mul71, %conv73
  %add75 = add nsw i32 %add74, 1
  %div76 = sdiv i32 %add75, 5
  %conv77 = trunc i32 %div76 to i8
  %arrayidx78 = getelementptr inbounds [8 x i8], ptr %alpha, i64 0, i64 2
  store i8 %conv77, ptr %arrayidx78, align 1
  %arrayidx79 = getelementptr inbounds [8 x i8], ptr %alpha, i64 0, i64 0
  %21 = load i8, ptr %arrayidx79, align 1
  %conv80 = zext i8 %21 to i32
  %mul81 = mul nsw i32 3, %conv80
  %arrayidx82 = getelementptr inbounds [8 x i8], ptr %alpha, i64 0, i64 1
  %22 = load i8, ptr %arrayidx82, align 1
  %conv83 = zext i8 %22 to i32
  %mul84 = mul nsw i32 2, %conv83
  %add85 = add nsw i32 %mul81, %mul84
  %add86 = add nsw i32 %add85, 1
  %div87 = sdiv i32 %add86, 5
  %conv88 = trunc i32 %div87 to i8
  %arrayidx89 = getelementptr inbounds [8 x i8], ptr %alpha, i64 0, i64 3
  store i8 %conv88, ptr %arrayidx89, align 1
  %arrayidx90 = getelementptr inbounds [8 x i8], ptr %alpha, i64 0, i64 0
  %23 = load i8, ptr %arrayidx90, align 1
  %conv91 = zext i8 %23 to i32
  %mul92 = mul nsw i32 2, %conv91
  %arrayidx93 = getelementptr inbounds [8 x i8], ptr %alpha, i64 0, i64 1
  %24 = load i8, ptr %arrayidx93, align 1
  %conv94 = zext i8 %24 to i32
  %mul95 = mul nsw i32 3, %conv94
  %add96 = add nsw i32 %mul92, %mul95
  %add97 = add nsw i32 %add96, 1
  %div98 = sdiv i32 %add97, 5
  %conv99 = trunc i32 %div98 to i8
  %arrayidx100 = getelementptr inbounds [8 x i8], ptr %alpha, i64 0, i64 4
  store i8 %conv99, ptr %arrayidx100, align 1
  %arrayidx101 = getelementptr inbounds [8 x i8], ptr %alpha, i64 0, i64 0
  %25 = load i8, ptr %arrayidx101, align 1
  %conv102 = zext i8 %25 to i32
  %arrayidx103 = getelementptr inbounds [8 x i8], ptr %alpha, i64 0, i64 1
  %26 = load i8, ptr %arrayidx103, align 1
  %conv104 = zext i8 %26 to i32
  %mul105 = mul nsw i32 4, %conv104
  %add106 = add nsw i32 %conv102, %mul105
  %add107 = add nsw i32 %add106, 1
  %div108 = sdiv i32 %add107, 5
  %conv109 = trunc i32 %div108 to i8
  %arrayidx110 = getelementptr inbounds [8 x i8], ptr %alpha, i64 0, i64 5
  store i8 %conv109, ptr %arrayidx110, align 1
  %arrayidx111 = getelementptr inbounds [8 x i8], ptr %alpha, i64 0, i64 6
  store i8 0, ptr %arrayidx111, align 1
  %arrayidx112 = getelementptr inbounds [8 x i8], ptr %alpha, i64 0, i64 7
  store i8 -1, ptr %arrayidx112, align 1
  br label %if.end

if.end:                                           ; preds = %if.else, %if.then
  %27 = load i64, ptr %block, align 8
  %shr113 = lshr i64 %27, 16
  store i64 %shr113, ptr %indices, align 8
  store i32 0, ptr %i, align 4
  br label %for.cond

for.cond:                                         ; preds = %for.inc123, %if.end
  %28 = load i32, ptr %i, align 4
  %cmp114 = icmp slt i32 %28, 4
  br i1 %cmp114, label %for.body, label %for.end125

for.body:                                         ; preds = %for.cond
  store i32 0, ptr %j, align 4
  br label %for.cond115

for.cond115:                                      ; preds = %for.inc, %for.body
  %29 = load i32, ptr %j, align 4
  %cmp116 = icmp slt i32 %29, 4
  br i1 %cmp116, label %for.body117, label %for.end

for.body117:                                      ; preds = %for.cond115
  %30 = load i64, ptr %indices, align 8
  %and118 = and i64 %30, 7
  %arrayidx119 = getelementptr inbounds [8 x i8], ptr %alpha, i64 0, i64 %and118
  %31 = load i8, ptr %arrayidx119, align 1
  %32 = load ptr, ptr %decompressed, align 8
  %33 = load i32, ptr %j, align 4
  %34 = load i32, ptr %pixelSize.addr, align 4
  %mul120 = mul nsw i32 %33, %34
  %idxprom = sext i32 %mul120 to i64
  %arrayidx121 = getelementptr inbounds i8, ptr %32, i64 %idxprom
  store i8 %31, ptr %arrayidx121, align 1
  %35 = load i64, ptr %indices, align 8
  %shr122 = lshr i64 %35, 3
  store i64 %shr122, ptr %indices, align 8
  br label %for.inc

for.inc:                                          ; preds = %for.body117
  %36 = load i32, ptr %j, align 4
  %inc = add nsw i32 %36, 1
  store i32 %inc, ptr %j, align 4
  br label %for.cond115, !llvm.loop !9

for.end:                                          ; preds = %for.cond115
  %37 = load i32, ptr %destinationPitch.addr, align 4
  %38 = load ptr, ptr %decompressed, align 8
  %idx.ext = sext i32 %37 to i64
  %add.ptr = getelementptr inbounds i8, ptr %38, i64 %idx.ext
  store ptr %add.ptr, ptr %decompressed, align 8
  br label %for.inc123

for.inc123:                                       ; preds = %for.end
  %39 = load i32, ptr %i, align 4
  %inc124 = add nsw i32 %39, 1
  store i32 %inc124, ptr %i, align 4
  br label %for.cond, !llvm.loop !10

for.end125:                                       ; preds = %for.cond
  ret void
}