; Function Attrs: mustprogress nofree norecurse nosync nounwind memory(write, argmem: readwrite, inaccessiblemem: none) uwtable
define hidden void @_Z25bcdec__smooth_alpha_blockPKvPvii(ptr nocapture noundef readonly %compressedBlock, ptr nocapture noundef writeonly %decompressedBlock, i32 noundef %destinationPitch, i32 noundef %pixelSize) local_unnamed_addr #5 {
entry:
  %alpha = alloca [8 x i8], align 1
  %0 = load i64, ptr %compressedBlock, align 8
  %conv = trunc i64 %0 to i8
  store i8 %conv, ptr %alpha, align 1
  %shr = lshr i64 %0, 8
  %conv2 = trunc i64 %shr to i8
  %arrayidx3 = getelementptr inbounds i8, ptr %alpha, i64 1
  store i8 %conv2, ptr %arrayidx3, align 1
  %1 = trunc i64 %0 to i32
  %conv5 = and i32 %1, 255
  %2 = trunc i64 %shr to i32
  %conv7 = and i32 %2, 255
  %cmp = icmp ugt i32 %conv5, %conv7
  %3 = trunc i64 %0 to i16
  %conv16 = and i16 %3, 255
  %4 = trunc i64 %shr to i16
  %conv19 = and i16 %4, 255
  %mul20 = shl nuw nsw i16 %conv19, 1
  %mul31 = mul nuw nsw i16 %conv19, 3
  br i1 %cmp, label %if.then, label %if.else

if.then:                                          ; preds = %entry
  %mul = mul nuw nsw i32 %conv5, 6
  %add = add nuw nsw i32 %mul, %conv7
  %5 = trunc i32 %add to i16
  %div.lhs.trunc = add nuw nsw i16 %5, 1
  %div8 = udiv i16 %div.lhs.trunc, 7
  %mul17 = mul nuw nsw i16 %conv16, 5
  %add21 = add nuw nsw i16 %mul17, 1
  %add22 = add nuw nsw i16 %add21, %mul20
  %div23 = udiv i16 %add22, 7
  %mul28 = shl nuw nsw i16 %conv16, 2
  %add32 = or disjoint i16 %mul28, 1
  %add33 = add nuw nsw i16 %add32, %mul31
  %div34 = udiv i16 %add33, 7
  %mul39 = mul nuw nsw i16 %conv16, 3
  %mul42 = shl nuw nsw i16 %conv19, 2
  %add43 = add nuw nsw i16 %mul39, 1
  %add44 = add nuw nsw i16 %add43, %mul42
  %div45 = udiv i16 %add44, 7
  %mul50 = shl nuw nsw i16 %conv16, 1
  %mul53 = mul nuw nsw i16 %conv19, 5
  %add54 = or disjoint i16 %mul50, 1
  %add55 = add nuw nsw i16 %add54, %mul53
  %div56 = udiv i16 %add55, 7
  %conv57 = trunc i16 %div56 to i8
  %mul63 = mul nuw nsw i16 %conv19, 6
  %add64 = add nuw nsw i16 %conv16, 1
  %add65 = add nuw nsw i16 %add64, %mul63
  %div66 = udiv i16 %add65, 7
  %conv67 = trunc i16 %div66 to i8
  br label %if.end

if.else:                                          ; preds = %entry
  %mul71 = shl nuw nsw i32 %conv5, 2
  %add74 = add nuw nsw i32 %mul71, %conv7
  %6 = trunc i32 %add74 to i16
  %div76.lhs.trunc = add nuw nsw i16 %6, 1
  %div769 = udiv i16 %div76.lhs.trunc, 5
  %mul81 = mul nuw nsw i16 %conv16, 3
  %add85 = add nuw nsw i16 %mul81, 1
  %add86 = add nuw nsw i16 %add85, %mul20
  %div87 = udiv i16 %add86, 5
  %mul92 = shl nuw nsw i16 %conv16, 1
  %add96 = or disjoint i16 %mul92, 1
  %add97 = add nuw nsw i16 %add96, %mul31
  %div98 = udiv i16 %add97, 5
  %mul105 = shl nuw nsw i16 %conv19, 2
  %add106 = add nuw nsw i16 %conv16, 1
  %add107 = add nuw nsw i16 %add106, %mul105
  %div108 = udiv i16 %add107, 5
  br label %if.end

if.end:                                           ; preds = %if.else, %if.then
  %conv77.sink.in = phi i16 [ %div8, %if.then ], [ %div769, %if.else ]
  %conv88.sink.in = phi i16 [ %div23, %if.then ], [ %div87, %if.else ]
  %conv99.sink.in = phi i16 [ %div34, %if.then ], [ %div98, %if.else ]
  %conv109.sink.in = phi i16 [ %div45, %if.then ], [ %div108, %if.else ]
  %.sink18 = phi i8 [ %conv57, %if.then ], [ 0, %if.else ]
  %.sink = phi i8 [ %conv67, %if.then ], [ -1, %if.else ]
  %conv109.sink = trunc i16 %conv109.sink.in to i8
  %conv99.sink = trunc i16 %conv99.sink.in to i8
  %conv88.sink = trunc i16 %conv88.sink.in to i8
  %conv77.sink = trunc i16 %conv77.sink.in to i8
  %7 = getelementptr inbounds i8, ptr %alpha, i64 2
  store i8 %conv77.sink, ptr %7, align 1
  %8 = getelementptr inbounds i8, ptr %alpha, i64 3
  store i8 %conv88.sink, ptr %8, align 1
  %9 = getelementptr inbounds i8, ptr %alpha, i64 4
  store i8 %conv99.sink, ptr %9, align 1
  %10 = getelementptr inbounds i8, ptr %alpha, i64 5
  store i8 %conv109.sink, ptr %10, align 1
  %11 = getelementptr inbounds i8, ptr %alpha, i64 6
  store i8 %.sink18, ptr %11, align 1
  %12 = getelementptr inbounds i8, ptr %alpha, i64 7
  store i8 %.sink, ptr %12, align 1
  %shr113 = lshr i64 %0, 16
  %idx.ext = sext i32 %destinationPitch to i64
  %13 = sext i32 %pixelSize to i64
  br label %for.cond115.preheader

for.cond115.preheader:                            ; preds = %if.end, %for.end
  %indices.014 = phi i64 [ %shr113, %if.end ], [ %shr122, %for.end ]
  %decompressed.013 = phi ptr [ %decompressedBlock, %if.end ], [ %add.ptr, %for.end ]
  %i.012 = phi i32 [ 0, %if.end ], [ %inc124, %for.end ]
  br label %for.body117

for.body117:                                      ; preds = %for.cond115.preheader, %for.body117
  %indvars.iv = phi i64 [ 0, %for.cond115.preheader ], [ %indvars.iv.next, %for.body117 ]
  %indices.111 = phi i64 [ %indices.014, %for.cond115.preheader ], [ %shr122, %for.body117 ]
  %and118 = and i64 %indices.111, 7
  %arrayidx119 = getelementptr inbounds [8 x i8], ptr %alpha, i64 0, i64 %and118
  %14 = load i8, ptr %arrayidx119, align 1
  %15 = mul nsw i64 %indvars.iv, %13
  %arrayidx121 = getelementptr inbounds i8, ptr %decompressed.013, i64 %15
  store i8 %14, ptr %arrayidx121, align 1
  %shr122 = lshr i64 %indices.111, 3
  %indvars.iv.next = add nuw nsw i64 %indvars.iv, 1
  %exitcond.not = icmp eq i64 %indvars.iv.next, 4
  br i1 %exitcond.not, label %for.end, label %for.body117, !llvm.loop !9

for.end:                                          ; preds = %for.body117
  %add.ptr = getelementptr inbounds i8, ptr %decompressed.013, i64 %idx.ext
  %inc124 = add nuw nsw i32 %i.012, 1
  %exitcond17.not = icmp eq i32 %inc124, 4
  br i1 %exitcond17.not, label %for.end125, label %for.cond115.preheader, !llvm.loop !10

for.end125:                                       ; preds = %for.end
  ret void
}